target datalayout = "e-m:e-p270:32:32-p271:32:32-p272:64:64-i64:64-i128:128-f80:128-n8:16:32:64-S128"
target triple = "x86_64-pc-linux-gnu"

%"struct.cvc5::internal::theory::SubsolverSetupInfo" = type { ptr, ptr, %"class.cvc5::internal::TypeNode", %"class.cvc5::internal::TypeNode" }
%"class.cvc5::internal::TypeNode" = type { ptr }

; Function Attrs: mustprogress uwtable
define hidden void @_ZN4cvc58internal6theory18SubsolverSetupInfoC2ERKNS0_3EnvERKNS0_7OptionsE(ptr noundef nonnull align 8 dereferenceable(32) %0, ptr noundef nonnull align 8 dereferenceable(696) %1, ptr noundef nonnull align 8 dereferenceable(408) %2) unnamed_addr #4 align 2 personality ptr @__gxx_personality_v0 {
  %4 = alloca ptr, align 8
  %5 = alloca ptr, align 8
  %6 = alloca ptr, align 8
  %7 = alloca ptr, align 8
  %8 = alloca i32, align 4
  store ptr %0, ptr %4, align 8, !tbaa !3
  store ptr %1, ptr %5, align 8, !tbaa !17
  store ptr %2, ptr %6, align 8, !tbaa !8
  %9 = load ptr, ptr %4, align 8
  %10 = getelementptr inbounds nuw %"struct.cvc5::internal::theory::SubsolverSetupInfo", ptr %9, i32 0, i32 0
  %11 = load ptr, ptr %6, align 8, !tbaa !8
  store ptr %11, ptr %10, align 8, !tbaa !8
  %12 = getelementptr inbounds nuw %"struct.cvc5::internal::theory::SubsolverSetupInfo", ptr %9, i32 0, i32 1
  %13 = load ptr, ptr %5, align 8, !tbaa !17
  %14 = call noundef nonnull align 8 dereferenceable(88) ptr @_ZNK4cvc58internal3Env12getLogicInfoEv(ptr noundef nonnull align 8 dereferenceable(696) %13)
  store ptr %14, ptr %12, align 8, !tbaa !10
  %15 = getelementptr inbounds nuw %"struct.cvc5::internal::theory::SubsolverSetupInfo", ptr %9, i32 0, i32 2
  %16 = load ptr, ptr %5, align 8, !tbaa !17
  call void @_ZNK4cvc58internal3Env13getSepLocTypeEv(ptr dead_on_unwind writable sret(%"class.cvc5::internal::TypeNode") align 8 %15, ptr noundef nonnull align 8 dereferenceable(696) %16)
  %17 = getelementptr inbounds nuw %"struct.cvc5::internal::theory::SubsolverSetupInfo", ptr %9, i32 0, i32 3
  %18 = load ptr, ptr %5, align 8, !tbaa !17
  invoke void @_ZNK4cvc58internal3Env14getSepDataTypeEv(ptr dead_on_unwind writable sret(%"class.cvc5::internal::TypeNode") align 8 %17, ptr noundef nonnull align 8 dereferenceable(696) %18)
          to label %19 unwind label %20

19:                                               ; preds = %3
  ret void

20:                                               ; preds = %3
  %21 = landingpad { ptr, i32 }
          cleanup
  %22 = extractvalue { ptr, i32 } %21, 0
  store ptr %22, ptr %7, align 8
  %23 = extractvalue { ptr, i32 } %21, 1
  store i32 %23, ptr %8, align 4
  call void @_ZN4cvc58internal8TypeNodeD2Ev(ptr noundef nonnull align 8 dereferenceable(8) %15) #3
  br label %24

24:                                               ; preds = %20
  %25 = load ptr, ptr %7, align 8
  %26 = load i32, ptr %8, align 4
  %27 = insertvalue { ptr, i32 } poison, ptr %25, 0
  %28 = insertvalue { ptr, i32 } %27, i32 %26, 1
  resume { ptr, i32 } %28
}