; Function Attrs: mustprogress uwtable
define hidden void @_ZN4cvc58internal6theory18SubsolverSetupInfoC2ERKNS0_3EnvERKNS0_7OptionsE(ptr noundef nonnull align 8 dereferenceable(32) initializes((0, 16)) %0, ptr noundef nonnull align 8 dereferenceable(696) %1, ptr noundef nonnull align 8 dereferenceable(408) %2) unnamed_addr #3 align 2 personality ptr @__gxx_personality_v0 {
  store ptr %2, ptr %0, align 8, !tbaa !3
  %4 = getelementptr inbounds nuw i8, ptr %0, i64 8
  %5 = tail call noundef nonnull align 8 dereferenceable(88) ptr @_ZNK4cvc58internal3Env12getLogicInfoEv(ptr noundef nonnull align 8 dereferenceable(696) %1)
  store ptr %5, ptr %4, align 8, !tbaa !8
  %6 = getelementptr inbounds nuw i8, ptr %0, i64 16
  tail call void @_ZNK4cvc58internal3Env13getSepLocTypeEv(ptr dead_on_unwind nonnull writable sret(%"class.cvc5::internal::TypeNode") align 8 %6, ptr noundef nonnull align 8 dereferenceable(696) %1)
  %7 = getelementptr inbounds nuw i8, ptr %0, i64 24
  invoke void @_ZNK4cvc58internal3Env14getSepDataTypeEv(ptr dead_on_unwind nonnull writable sret(%"class.cvc5::internal::TypeNode") align 8 %7, ptr noundef nonnull align 8 dereferenceable(696) %1)
          to label %8 unwind label %9

8:                                                ; preds = %3
  ret void

9:                                                ; preds = %3
  %10 = landingpad { ptr, i32 }
          cleanup
  tail call void @_ZN4cvc58internal8TypeNodeD2Ev(ptr noundef nonnull align 8 dereferenceable(8) %6) #20
  resume { ptr, i32 } %10
}